target datalayout = "e-m:e-p270:32:32-p271:32:32-p272:64:64-i64:64-i128:128-f80:128-n8:16:32:64-S128"
target triple = "x86_64-pc-linux-gnu"

%"struct.Luau::EqSat::Id" = type { i32 }
%"class.std::vector.0" = type { %"struct.std::_Vector_base.1" }
%"struct.std::_Vector_base.1" = type { %"struct.std::_Vector_base<Luau::EqSat::Id, std::allocator<Luau::EqSat::Id>>::_Vector_impl" }
%"struct.std::_Vector_base<Luau::EqSat::Id, std::allocator<Luau::EqSat::Id>>::_Vector_impl" = type { %"struct.std::_Vector_base<Luau::EqSat::Id, std::allocator<Luau::EqSat::Id>>::_Vector_impl_data" }
%"struct.std::_Vector_base<Luau::EqSat::Id, std::allocator<Luau::EqSat::Id>>::_Vector_impl_data" = type { ptr, ptr, ptr }
%"class.__gnu_cxx::__normal_iterator.5" = type { ptr }
%"struct.Luau::EqSat::LanguageHash.535" = type { i8 }
%"struct.Luau::EqSat::NodeSet.45" = type { %"class.std::vector.0" }
%"struct.std::hash" = type { i8 }
%"struct.Luau::EqSat::LanguageHash.536" = type { i8 }
%"struct.Luau::EqSat::NodeSet<Luau::EqSatSimplification::Intersection, std::vector<Luau::EqSat::Id>>::Hash" = type { i8 }

; Function Attrs: mustprogress uwtable
define linkonce_odr dso_local noundef i64 @_ZNK4Luau5EqSat12LanguageHashINS0_2IdEEclERKS2_Pm(ptr noundef nonnull align 1 dereferenceable(1) %0, ptr noundef nonnull align 4 dereferenceable(4) %1, ptr noundef %2) #6 comdat align 2 {
  %4 = alloca ptr, align 8
  %5 = alloca ptr, align 8
  %6 = alloca ptr, align 8
  %7 = alloca %"struct.std::hash", align 1
  %8 = alloca %"struct.Luau::EqSat::Id", align 4
  store ptr %0, ptr %4, align 8, !tbaa !1588
  store ptr %1, ptr %5, align 8, !tbaa !28
  store ptr %2, ptr %6, align 8, !tbaa !65
  call void @llvm.lifetime.start.p0(i64 1, ptr %7) #4
  %9 = load ptr, ptr %5, align 8, !tbaa !28
  call void @llvm.memcpy.p0.p0.i64(ptr align 4 %8, ptr align 4 %9, i64 4, i1 false), !tbaa.struct !47
  %10 = getelementptr inbounds nuw %"struct.Luau::EqSat::Id", ptr %8, i32 0, i32 0
  %11 = load i32, ptr %10, align 4
  %12 = call noundef i64 @_ZNKSt4hashIN4Luau5EqSat2IdEEclES2_(ptr noundef nonnull align 1 dereferenceable(1) %7, i32 %11)
  call void @llvm.lifetime.end.p0(i64 1, ptr %7) #4
  ret i64 %12
}

; Function Attrs: mustprogress nounwind uwtable
define linkonce_odr dso_local noundef nonnull align 8 dereferenceable(8) ptr @_ZNK9__gnu_cxx17__normal_iteratorIPKN4Luau5EqSat2IdESt6vectorIS3_SaIS3_EEE4baseEv(ptr noundef nonnull align 8 dereferenceable(8) %0) #5 comdat align 2 {
  %2 = alloca ptr, align 8
  store ptr %0, ptr %2, align 8, !tbaa !41
  %3 = load ptr, ptr %2, align 8
  %4 = getelementptr inbounds nuw %"class.__gnu_cxx::__normal_iterator.5", ptr %3, i32 0, i32 0
  ret ptr %4
}

; Function Attrs: mustprogress nounwind uwtable
define linkonce_odr dso_local void @_ZN9__gnu_cxx17__normal_iteratorIPKN4Luau5EqSat2IdESt6vectorIS3_SaIS3_EEEC2ERKS5_(ptr noundef nonnull align 8 dereferenceable(8) %0, ptr noundef nonnull align 8 dereferenceable(8) %1) unnamed_addr #5 comdat align 2 {
  %3 = alloca ptr, align 8
  %4 = alloca ptr, align 8
  store ptr %0, ptr %3, align 8, !tbaa !41
  store ptr %1, ptr %4, align 8, !tbaa !758
  %5 = load ptr, ptr %3, align 8
  %6 = getelementptr inbounds nuw %"class.__gnu_cxx::__normal_iterator.5", ptr %5, i32 0, i32 0
  %7 = load ptr, ptr %4, align 8, !tbaa !758
  %8 = load ptr, ptr %7, align 8, !tbaa !28
  store ptr %8, ptr %6, align 8, !tbaa !45
  ret void
}

; Function Attrs: mustprogress nounwind uwtable
define linkonce_odr dso_local noundef nonnull align 8 dereferenceable(8) ptr @_ZN9__gnu_cxx17__normal_iteratorIPKN4Luau5EqSat2IdESt6vectorIS3_SaIS3_EEEppEv(ptr noundef nonnull align 8 dereferenceable(8) %0) #5 comdat align 2 {
  %2 = alloca ptr, align 8
  store ptr %0, ptr %2, align 8, !tbaa !41
  %3 = load ptr, ptr %2, align 8
  %4 = getelementptr inbounds nuw %"class.__gnu_cxx::__normal_iterator.5", ptr %3, i32 0, i32 0
  %5 = load ptr, ptr %4, align 8, !tbaa !45
  %6 = getelementptr inbounds nuw %"struct.Luau::EqSat::Id", ptr %5, i32 1
  store ptr %6, ptr %4, align 8, !tbaa !45
  ret ptr %3
}

; Function Attrs: inlinehint mustprogress nounwind uwtable
define linkonce_odr dso_local void @_ZN4Luau5EqSat11hashCombineERmm(ptr noundef nonnull align 8 dereferenceable(8) %0, i64 noundef %1) #9 comdat {
  %3 = alloca ptr, align 8
  %4 = alloca i64, align 8
  store ptr %0, ptr %3, align 8, !tbaa !65
  store i64 %1, ptr %4, align 8, !tbaa !38
  %5 = load i64, ptr %4, align 8, !tbaa !38
  %6 = add i64 %5, 2654435769
  %7 = load ptr, ptr %3, align 8, !tbaa !65
  %8 = load i64, ptr %7, align 8, !tbaa !38
  %9 = shl i64 %8, 6
  %10 = add i64 %6, %9
  %11 = load ptr, ptr %3, align 8, !tbaa !65
  %12 = load i64, ptr %11, align 8, !tbaa !38
  %13 = lshr i64 %12, 2
  %14 = add i64 %10, %13
  %15 = load ptr, ptr %3, align 8, !tbaa !65
  %16 = load i64, ptr %15, align 8, !tbaa !38
  %17 = xor i64 %16, %14
  store i64 %17, ptr %15, align 8, !tbaa !38
  ret void
}

; Function Attrs: mustprogress uwtable
define linkonce_odr dso_local noundef i64 @_ZN4Luau5EqSat12languageHashINS0_2IdEEEmRKT_(ptr noundef nonnull align 4 dereferenceable(4) %0) #6 comdat {
  %2 = alloca ptr, align 8
  %3 = alloca %"struct.Luau::EqSat::LanguageHash.536", align 1
  store ptr %0, ptr %2, align 8, !tbaa !28
  call void @llvm.lifetime.start.p0(i64 1, ptr %3) #4
  %4 = load ptr, ptr %2, align 8, !tbaa !28
  %5 = call noundef i64 @_ZNK4Luau5EqSat12LanguageHashINS0_2IdEEclERKS2_Pm(ptr noundef nonnull align 1 dereferenceable(1) %3, ptr noundef nonnull align 4 dereferenceable(4) %4, ptr noundef null)
  call void @llvm.lifetime.end.p0(i64 1, ptr %3) #4
  ret i64 %5
}

; Function Attrs: mustprogress nounwind uwtable
define linkonce_odr dso_local noundef nonnull align 4 dereferenceable(4) ptr @_ZNK9__gnu_cxx17__normal_iteratorIPKN4Luau5EqSat2IdESt6vectorIS3_SaIS3_EEEdeEv(ptr noundef nonnull align 8 dereferenceable(8) %0) #5 comdat align 2 {
  %2 = alloca ptr, align 8
  store ptr %0, ptr %2, align 8, !tbaa !41
  %3 = load ptr, ptr %2, align 8
  %4 = getelementptr inbounds nuw %"class.__gnu_cxx::__normal_iterator.5", ptr %3, i32 0, i32 0
  %5 = load ptr, ptr %4, align 8, !tbaa !45
  ret ptr %5
}

; Function Attrs: inlinehint mustprogress nounwind uwtable
define linkonce_odr dso_local noundef zeroext i1 @_ZN9__gnu_cxxneIPKN4Luau5EqSat2IdESt6vectorIS3_SaIS3_EEEEbRKNS_17__normal_iteratorIT_T0_EESE_(ptr noundef nonnull align 8 dereferenceable(8) %0, ptr noundef nonnull align 8 dereferenceable(8) %1) #9 comdat {
  %3 = alloca ptr, align 8
  %4 = alloca ptr, align 8
  store ptr %0, ptr %3, align 8, !tbaa !41
  store ptr %1, ptr %4, align 8, !tbaa !41
  %5 = load ptr, ptr %3, align 8, !tbaa !41
  %6 = call noundef nonnull align 8 dereferenceable(8) ptr @_ZNK9__gnu_cxx17__normal_iteratorIPKN4Luau5EqSat2IdESt6vectorIS3_SaIS3_EEE4baseEv(ptr noundef nonnull align 8 dereferenceable(8) %5) #4
  %7 = load ptr, ptr %6, align 8, !tbaa !28
  %8 = load ptr, ptr %4, align 8, !tbaa !41
  %9 = call noundef nonnull align 8 dereferenceable(8) ptr @_ZNK9__gnu_cxx17__normal_iteratorIPKN4Luau5EqSat2IdESt6vectorIS3_SaIS3_EEE4baseEv(ptr noundef nonnull align 8 dereferenceable(8) %8) #4
  %10 = load ptr, ptr %9, align 8, !tbaa !28
  %11 = icmp ne ptr %7, %10
  ret i1 %11
}

; Function Attrs: mustprogress nounwind uwtable
define linkonce_odr dso_local ptr @_ZNKSt6vectorIN4Luau5EqSat2IdESaIS2_EE3endEv(ptr noundef nonnull align 8 dereferenceable(24) %0) #5 comdat align 2 {
  %2 = alloca %"class.__gnu_cxx::__normal_iterator.5", align 8
  %3 = alloca ptr, align 8
  store ptr %0, ptr %3, align 8, !tbaa !26
  %4 = load ptr, ptr %3, align 8
  %5 = getelementptr inbounds nuw %"struct.std::_Vector_base.1", ptr %4, i32 0, i32 0
  %6 = getelementptr inbounds nuw %"struct.std::_Vector_base<Luau::EqSat::Id, std::allocator<Luau::EqSat::Id>>::_Vector_impl_data", ptr %5, i32 0, i32 1
  call void @_ZN9__gnu_cxx17__normal_iteratorIPKN4Luau5EqSat2IdESt6vectorIS3_SaIS3_EEEC2ERKS5_(ptr noundef nonnull align 8 dereferenceable(8) %2, ptr noundef nonnull align 8 dereferenceable(8) %6) #4
  %7 = getelementptr inbounds nuw %"class.__gnu_cxx::__normal_iterator.5", ptr %2, i32 0, i32 0
  %8 = load ptr, ptr %7, align 8
  ret ptr %8
}

; Function Attrs: mustprogress nounwind uwtable
define linkonce_odr dso_local ptr @_ZNKSt6vectorIN4Luau5EqSat2IdESaIS2_EE5beginEv(ptr noundef nonnull align 8 dereferenceable(24) %0) #5 comdat align 2 {
  %2 = alloca %"class.__gnu_cxx::__normal_iterator.5", align 8
  %3 = alloca ptr, align 8
  store ptr %0, ptr %3, align 8, !tbaa !26
  %4 = load ptr, ptr %3, align 8
  %5 = getelementptr inbounds nuw %"struct.std::_Vector_base.1", ptr %4, i32 0, i32 0
  %6 = getelementptr inbounds nuw %"struct.std::_Vector_base<Luau::EqSat::Id, std::allocator<Luau::EqSat::Id>>::_Vector_impl_data", ptr %5, i32 0, i32 0
  call void @_ZN9__gnu_cxx17__normal_iteratorIPKN4Luau5EqSat2IdESt6vectorIS3_SaIS3_EEEC2ERKS5_(ptr noundef nonnull align 8 dereferenceable(8) %2, ptr noundef nonnull align 8 dereferenceable(8) %6) #4
  %7 = getelementptr inbounds nuw %"class.__gnu_cxx::__normal_iterator.5", ptr %2, i32 0, i32 0
  %8 = load ptr, ptr %7, align 8
  ret ptr %8
}

; Function Attrs: mustprogress uwtable
define linkonce_odr dso_local noundef i64 @_ZNK4Luau5EqSat12LanguageHashISt6vectorINS0_2IdESaIS3_EEEclERKS5_(ptr noundef nonnull align 1 dereferenceable(1) %0, ptr noundef nonnull align 8 dereferenceable(24) %1) #6 comdat align 2 {
  %3 = alloca ptr, align 8
  %4 = alloca ptr, align 8
  %5 = alloca i64, align 8
  %6 = alloca ptr, align 8
  %7 = alloca %"class.__gnu_cxx::__normal_iterator.5", align 8
  %8 = alloca %"class.__gnu_cxx::__normal_iterator.5", align 8
  %9 = alloca ptr, align 8
  store ptr %0, ptr %3, align 8, !tbaa !1586
  store ptr %1, ptr %4, align 8, !tbaa !26
  call void @llvm.lifetime.start.p0(i64 8, ptr %5) #4
  store i64 0, ptr %5, align 8, !tbaa !38
  call void @llvm.lifetime.start.p0(i64 8, ptr %6) #4
  %10 = load ptr, ptr %4, align 8, !tbaa !26
  store ptr %10, ptr %6, align 8, !tbaa !26
  call void @llvm.lifetime.start.p0(i64 8, ptr %7) #4
  %11 = load ptr, ptr %6, align 8, !tbaa !26
  %12 = call ptr @_ZNKSt6vectorIN4Luau5EqSat2IdESaIS2_EE5beginEv(ptr noundef nonnull align 8 dereferenceable(24) %11) #4
  %13 = getelementptr inbounds nuw %"class.__gnu_cxx::__normal_iterator.5", ptr %7, i32 0, i32 0
  store ptr %12, ptr %13, align 8
  call void @llvm.lifetime.start.p0(i64 8, ptr %8) #4
  %14 = load ptr, ptr %6, align 8, !tbaa !26
  %15 = call ptr @_ZNKSt6vectorIN4Luau5EqSat2IdESaIS2_EE3endEv(ptr noundef nonnull align 8 dereferenceable(24) %14) #4
  %16 = getelementptr inbounds nuw %"class.__gnu_cxx::__normal_iterator.5", ptr %8, i32 0, i32 0
  store ptr %15, ptr %16, align 8
  br label %17

17:                                               ; preds = %24, %2
  %18 = call noundef zeroext i1 @_ZN9__gnu_cxxneIPKN4Luau5EqSat2IdESt6vectorIS3_SaIS3_EEEEbRKNS_17__normal_iteratorIT_T0_EESE_(ptr noundef nonnull align 8 dereferenceable(8) %7, ptr noundef nonnull align 8 dereferenceable(8) %8) #4
  br i1 %18, label %20, label %19

19:                                               ; preds = %17
  call void @llvm.lifetime.end.p0(i64 8, ptr %8) #4
  call void @llvm.lifetime.end.p0(i64 8, ptr %7) #4
  call void @llvm.lifetime.end.p0(i64 8, ptr %6) #4
  br label %26

20:                                               ; preds = %17
  call void @llvm.lifetime.start.p0(i64 8, ptr %9) #4
  %21 = call noundef nonnull align 4 dereferenceable(4) ptr @_ZNK9__gnu_cxx17__normal_iteratorIPKN4Luau5EqSat2IdESt6vectorIS3_SaIS3_EEEdeEv(ptr noundef nonnull align 8 dereferenceable(8) %7) #4
  store ptr %21, ptr %9, align 8, !tbaa !28
  %22 = load ptr, ptr %9, align 8, !tbaa !28
  %23 = call noundef i64 @_ZN4Luau5EqSat12languageHashINS0_2IdEEEmRKT_(ptr noundef nonnull align 4 dereferenceable(4) %22)
  call void @_ZN4Luau5EqSat11hashCombineERmm(ptr noundef nonnull align 8 dereferenceable(8) %5, i64 noundef %23)
  call void @llvm.lifetime.end.p0(i64 8, ptr %9) #4
  br label %24

24:                                               ; preds = %20
  %25 = call noundef nonnull align 8 dereferenceable(8) ptr @_ZN9__gnu_cxx17__normal_iteratorIPKN4Luau5EqSat2IdESt6vectorIS3_SaIS3_EEEppEv(ptr noundef nonnull align 8 dereferenceable(8) %7) #4
  br label %17

26:                                               ; preds = %19
  %27 = load i64, ptr %5, align 8, !tbaa !38
  call void @llvm.lifetime.end.p0(i64 8, ptr %5) #4
  ret i64 %27
}

; Function Attrs: mustprogress uwtable
define linkonce_odr dso_local noundef i64 @_ZN4Luau5EqSat12languageHashISt6vectorINS0_2IdESaIS3_EEEEmRKT_(ptr noundef nonnull align 8 dereferenceable(24) %0) #6 comdat {
  %2 = alloca ptr, align 8
  %3 = alloca %"struct.Luau::EqSat::LanguageHash.535", align 1
  store ptr %0, ptr %2, align 8, !tbaa !26
  call void @llvm.lifetime.start.p0(i64 1, ptr %3) #4
  %4 = load ptr, ptr %2, align 8, !tbaa !26
  %5 = call noundef i64 @_ZNK4Luau5EqSat12LanguageHashISt6vectorINS0_2IdESaIS3_EEEclERKS5_(ptr noundef nonnull align 1 dereferenceable(1) %3, ptr noundef nonnull align 8 dereferenceable(24) %4)
  call void @llvm.lifetime.end.p0(i64 1, ptr %3) #4
  ret i64 %5
}

; Function Attrs: mustprogress uwtable
define linkonce_odr dso_local noundef i64 @_ZNK4Luau5EqSat7NodeSetINS_19EqSatSimplification12IntersectionESt6vectorINS0_2IdESaIS5_EEE4HashclERKS8_(ptr noundef nonnull align 1 dereferenceable(1) %0, ptr noundef nonnull align 8 dereferenceable(24) %1) #6 comdat align 2 {
  %3 = alloca ptr, align 8
  %4 = alloca ptr, align 8
  store ptr %0, ptr %3, align 8, !tbaa !1738
  store ptr %1, ptr %4, align 8, !tbaa !113
  %5 = load ptr, ptr %4, align 8, !tbaa !113
  %6 = getelementptr inbounds nuw %"struct.Luau::EqSat::NodeSet.45", ptr %5, i32 0, i32 0
  %7 = call noundef i64 @_ZN4Luau5EqSat12languageHashISt6vectorINS0_2IdESaIS3_EEEEmRKT_(ptr noundef nonnull align 8 dereferenceable(24) %6)
  ret i64 %7
}

; Function Attrs: inlinehint mustprogress uwtable
define linkonce_odr dso_local noundef i64 @_ZZNK4Luau5EqSat8LanguageIJNS_19EqSatSimplification4TNilENS2_8TBooleanENS2_7TNumberENS2_7TStringENS2_7TThreadENS2_12TTopFunctionENS2_9TTopTableENS2_9TTopClassENS2_7TBufferENS2_7TOpaqueENS2_8SBooleanENS2_7SStringENS2_9TFunctionENS2_6TTableENS2_14TImportedTableENS2_6TClassENS2_4TAnyENS2_6TErrorENS2_8TUnknownENS2_6TNeverENS2_5UnionENS2_12IntersectionENS2_8NegationENS2_8TTypeFunENS2_7InvalidENS2_9TNoRefineENS2_6TBoundEEE4HashclERKSU_ENKUlOT_E_clIRKSO_EEDaSZ_(ptr noundef nonnull align 1 dereferenceable(1) %0, ptr noundef nonnull align 8 dereferenceable(24) %1) #8 comdat align 2 {
  %3 = alloca ptr, align 8
  %4 = alloca ptr, align 8
  %5 = alloca %"struct.Luau::EqSat::NodeSet<Luau::EqSatSimplification::Intersection, std::vector<Luau::EqSat::Id>>::Hash", align 1
  store ptr %0, ptr %3, align 8, !tbaa !104
  store ptr %1, ptr %4, align 8, !tbaa !111
  call void @llvm.lifetime.start.p0(i64 1, ptr %5) #4
  %6 = load ptr, ptr %4, align 8, !tbaa !111
  %7 = call noundef i64 @_ZNK4Luau5EqSat7NodeSetINS_19EqSatSimplification12IntersectionESt6vectorINS0_2IdESaIS5_EEE4HashclERKS8_(ptr noundef nonnull align 1 dereferenceable(1) %5, ptr noundef nonnull align 8 dereferenceable(24) %6)
  call void @llvm.lifetime.end.p0(i64 1, ptr %5) #4
  ret i64 %7
}

; Function Attrs: mustprogress uwtable
define internal void @_ZN4LuauL8fnVisitRIZNKS_5EqSat8LanguageIJNS_19EqSatSimplification4TNilENS3_8TBooleanENS3_7TNumberENS3_7TStringENS3_7TThreadENS3_12TTopFunctionENS3_9TTopTableENS3_9TTopClassENS3_7TBufferENS3_7TOpaqueENS3_8SBooleanENS3_7SStringENS3_9TFunctionENS3_6TTableENS3_14TImportedTableENS3_6TClassENS3_4TAnyENS3_6TErrorENS3_8TUnknownENS3_6TNeverENS3_5UnionENS3_12IntersectionENS3_8NegationENS3_8TTypeFunENS3_7InvalidENS3_9TNoRefineENS3_6TBoundEEE4HashclERKSV_EUlOT_E_mKSP_EEvRSZ_RT0_PNSt11conditionalIXsr3stdE10is_const_vIT1_EEKvvE4typeE(ptr noundef nonnull align 1 dereferenceable(1) %0, ptr noundef nonnull align 8 dereferenceable(8) %1, ptr noundef %2) #6 {
  %4 = alloca ptr, align 8
  %5 = alloca ptr, align 8
  %6 = alloca ptr, align 8
  store ptr %0, ptr %4, align 8, !tbaa !104
  store ptr %1, ptr %5, align 8, !tbaa !65
  store ptr %2, ptr %6, align 8, !tbaa !104
  %7 = load ptr, ptr %4, align 8, !tbaa !104
  %8 = load ptr, ptr %6, align 8, !tbaa !104
  %9 = call noundef i64 @_ZZNK4Luau5EqSat8LanguageIJNS_19EqSatSimplification4TNilENS2_8TBooleanENS2_7TNumberENS2_7TStringENS2_7TThreadENS2_12TTopFunctionENS2_9TTopTableENS2_9TTopClassENS2_7TBufferENS2_7TOpaqueENS2_8SBooleanENS2_7SStringENS2_9TFunctionENS2_6TTableENS2_14TImportedTableENS2_6TClassENS2_4TAnyENS2_6TErrorENS2_8TUnknownENS2_6TNeverENS2_5UnionENS2_12IntersectionENS2_8NegationENS2_8TTypeFunENS2_7InvalidENS2_9TNoRefineENS2_6TBoundEEE4HashclERKSU_ENKUlOT_E_clIRKSO_EEDaSZ_(ptr noundef nonnull align 1 dereferenceable(1) %7, ptr noundef nonnull align 8 dereferenceable(24) %8)
  %10 = load ptr, ptr %5, align 8, !tbaa !65
  store i64 %9, ptr %10, align 8, !tbaa !38
  ret void
}