; Function Attrs: mustprogress uwtable
define internal void @_ZN4LuauL8fnVisitRIZNKS_5EqSat8LanguageIJNS_19EqSatSimplification4TNilENS3_8TBooleanENS3_7TNumberENS3_7TStringENS3_7TThreadENS3_12TTopFunctionENS3_9TTopTableENS3_9TTopClassENS3_7TBufferENS3_7TOpaqueENS3_8SBooleanENS3_7SStringENS3_9TFunctionENS3_6TTableENS3_14TImportedTableENS3_6TClassENS3_4TAnyENS3_6TErrorENS3_8TUnknownENS3_6TNeverENS3_5UnionENS3_12IntersectionENS3_8NegationENS3_8TTypeFunENS3_7InvalidENS3_9TNoRefineENS3_6TBoundEEE4HashclERKSV_EUlOT_E_mKSP_EEvRSZ_RT0_PNSt11conditionalIXsr3stdE10is_const_vIT1_EEKvvE4typeE(ptr nonnull readnone align 1 captures(none) %0, ptr noundef nonnull writeonly align 8 captures(none) dereferenceable(8) %1, ptr noundef readonly captures(none) %2) #5 {
  %4 = alloca %"struct.std::hash", align 1
  %5 = load ptr, ptr %2, align 8, !tbaa !26
  %6 = getelementptr inbounds nuw i8, ptr %2, i64 8
  %7 = load ptr, ptr %6, align 8, !tbaa !26
  %.not8.i.i.i.i = icmp eq ptr %5, %7
  br i1 %.not8.i.i.i.i, label %_ZZNK4Luau5EqSat8LanguageIJNS_19EqSatSimplification4TNilENS2_8TBooleanENS2_7TNumberENS2_7TStringENS2_7TThreadENS2_12TTopFunctionENS2_9TTopTableENS2_9TTopClassENS2_7TBufferENS2_7TOpaqueENS2_8SBooleanENS2_7SStringENS2_9TFunctionENS2_6TTableENS2_14TImportedTableENS2_6TClassENS2_4TAnyENS2_6TErrorENS2_8TUnknownENS2_6TNeverENS2_5UnionENS2_12IntersectionENS2_8NegationENS2_8TTypeFunENS2_7InvalidENS2_9TNoRefineENS2_6TBoundEEE4HashclERKSU_ENKUlOT_E_clIRKSO_EEDaSZ_.exit, label %.lr.ph.i.i.i.i

.lr.ph.i.i.i.i:                                   ; preds = %3, %.lr.ph.i.i.i.i
  %.010.i.i.i.i = phi i64 [ %14, %.lr.ph.i.i.i.i ], [ 0, %3 ]
  %.sroa.04.09.i.i.i.i = phi ptr [ %15, %.lr.ph.i.i.i.i ], [ %5, %3 ]
  call void @llvm.lifetime.start.p0(i64 1, ptr nonnull %4) #37
  %.sroa.0.0.copyload.i.i.i.i.i.i = load i32, ptr %.sroa.04.09.i.i.i.i, align 4, !tbaa !4
  %8 = call noundef i64 @_ZNKSt4hashIN4Luau5EqSat2IdEEclES2_(ptr noundef nonnull align 1 dereferenceable(1) %4, i32 %.sroa.0.0.copyload.i.i.i.i.i.i)
  call void @llvm.lifetime.end.p0(i64 1, ptr nonnull %4) #37
  %9 = shl i64 %.010.i.i.i.i, 6
  %10 = lshr i64 %.010.i.i.i.i, 2
  %11 = add i64 %9, 2654435769
  %12 = add i64 %11, %10
  %13 = add i64 %12, %8
  %14 = xor i64 %13, %.010.i.i.i.i
  %15 = getelementptr inbounds nuw i8, ptr %.sroa.04.09.i.i.i.i, i64 4
  %.not.i.i.i.i = icmp eq ptr %15, %7
  br i1 %.not.i.i.i.i, label %_ZZNK4Luau5EqSat8LanguageIJNS_19EqSatSimplification4TNilENS2_8TBooleanENS2_7TNumberENS2_7TStringENS2_7TThreadENS2_12TTopFunctionENS2_9TTopTableENS2_9TTopClassENS2_7TBufferENS2_7TOpaqueENS2_8SBooleanENS2_7SStringENS2_9TFunctionENS2_6TTableENS2_14TImportedTableENS2_6TClassENS2_4TAnyENS2_6TErrorENS2_8TUnknownENS2_6TNeverENS2_5UnionENS2_12IntersectionENS2_8NegationENS2_8TTypeFunENS2_7InvalidENS2_9TNoRefineENS2_6TBoundEEE4HashclERKSU_ENKUlOT_E_clIRKSO_EEDaSZ_.exit, label %.lr.ph.i.i.i.i

_ZZNK4Luau5EqSat8LanguageIJNS_19EqSatSimplification4TNilENS2_8TBooleanENS2_7TNumberENS2_7TStringENS2_7TThreadENS2_12TTopFunctionENS2_9TTopTableENS2_9TTopClassENS2_7TBufferENS2_7TOpaqueENS2_8SBooleanENS2_7SStringENS2_9TFunctionENS2_6TTableENS2_14TImportedTableENS2_6TClassENS2_4TAnyENS2_6TErrorENS2_8TUnknownENS2_6TNeverENS2_5UnionENS2_12IntersectionENS2_8NegationENS2_8TTypeFunENS2_7InvalidENS2_9TNoRefineENS2_6TBoundEEE4HashclERKSU_ENKUlOT_E_clIRKSO_EEDaSZ_.exit: ; preds = %.lr.ph.i.i.i.i, %3
  %.0.lcssa.i.i.i.i = phi i64 [ 0, %3 ], [ %14, %.lr.ph.i.i.i.i ]
  store i64 %.0.lcssa.i.i.i.i, ptr %1, align 8, !tbaa !45
  ret void
}